; ModuleID = '15/969.c'
source_filename = "15/969.c"
target datalayout = "e-m:e-p270:32:32-p271:32:32-p272:64:64-i64:64-f80:128-n8:16:32:64-S128"
target triple = "x86_64-pc-linux-gnu"

@.str = private unnamed_addr constant [3 x i8] c"%d\00", align 1

; Function Attrs: noinline nounwind uwtable
define dso_local i32 @main() #0 {
  %1 = alloca i32, align 4
  %2 = alloca [1000 x [1000 x i32]], align 16
  %3 = alloca i32, align 4
  %4 = alloca i32, align 4
  %5 = alloca i32, align 4
  %6 = alloca i32, align 4
  %7 = alloca i32, align 4
  %8 = alloca i32, align 4
  %9 = alloca i32, align 4
  %10 = alloca i32, align 4
  store i32 0, i32* %1, align 4
  store i32 0, i32* %5, align 4
  store i32 0, i32* %9, align 4
  store i32 0, i32* %10, align 4
  %11 = call i32 (i8*, ...) @__isoc99_scanf(i8* getelementptr inbounds ([3 x i8], [3 x i8]* @.str, i64 0, i64 0), i32* %10)
  store i32 0, i32* %3, align 4
  br label %12

12:                                               ; preds = %33, %0
  %13 = load i32, i32* %3, align 4
  %14 = load i32, i32* %10, align 4
  %15 = icmp slt i32 %13, %14
  br i1 %15, label %16, label %36

16:                                               ; preds = %12
  store i32 0, i32* %4, align 4
  br label %17

17:                                               ; preds = %29, %16
  %18 = load i32, i32* %4, align 4
  %19 = load i32, i32* %10, align 4
  %20 = icmp slt i32 %18, %19
  br i1 %20, label %21, label %32

21:                                               ; preds = %17
  %22 = load i32, i32* %3, align 4
  %23 = sext i32 %22 to i64
  %24 = getelementptr inbounds [1000 x [1000 x i32]], [1000 x [1000 x i32]]* %2, i64 0, i64 %23
  %25 = load i32, i32* %4, align 4
  %26 = sext i32 %25 to i64
  %27 = getelementptr inbounds [1000 x i32], [1000 x i32]* %24, i64 0, i64 %26
  %28 = call i32 (i8*, ...) @__isoc99_scanf(i8* getelementptr inbounds ([3 x i8], [3 x i8]* @.str, i64 0, i64 0), i32* %27)
  br label %29

29:                                               ; preds = %21
  %30 = load i32, i32* %4, align 4
  %31 = add nsw i32 %30, 1
  store i32 %31, i32* %4, align 4
  br label %17

32:                                               ; preds = %17
  br label %33

33:                                               ; preds = %32
  %34 = load i32, i32* %3, align 4
  %35 = add nsw i32 %34, 1
  store i32 %35, i32* %3, align 4
  br label %12

36:                                               ; preds = %12
  store i32 0, i32* %3, align 4
  br label %37

37:                                               ; preds = %72, %36
  %38 = load i32, i32* %3, align 4
  %39 = load i32, i32* %10, align 4
  %40 = icmp slt i32 %38, %39
  br i1 %40, label %41, label %75

41:                                               ; preds = %37
  store i32 0, i32* %4, align 4
  br label %42

42:                                               ; preds = %68, %41
  %43 = load i32, i32* %4, align 4
  %44 = load i32, i32* %10, align 4
  %45 = sub nsw i32 %44, 1
  %46 = icmp slt i32 %43, %45
  br i1 %46, label %47, label %71

47:                                               ; preds = %42
  %48 = load i32, i32* %3, align 4
  %49 = sext i32 %48 to i64
  %50 = getelementptr inbounds [1000 x [1000 x i32]], [1000 x [1000 x i32]]* %2, i64 0, i64 %49
  %51 = load i32, i32* %4, align 4
  %52 = sext i32 %51 to i64
  %53 = getelementptr inbounds [1000 x i32], [1000 x i32]* %50, i64 0, i64 %52
  %54 = load i32, i32* %53, align 4
  %55 = load i32, i32* %3, align 4
  %56 = sext i32 %55 to i64
  %57 = getelementptr inbounds [1000 x [1000 x i32]], [1000 x [1000 x i32]]* %2, i64 0, i64 %56
  %58 = load i32, i32* %4, align 4
  %59 = add nsw i32 %58, 1
  %60 = sext i32 %59 to i64
  %61 = getelementptr inbounds [1000 x i32], [1000 x i32]* %57, i64 0, i64 %60
  %62 = load i32, i32* %61, align 4
  %63 = icmp slt i32 %54, %62
  br i1 %63, label %64, label %67

64:                                               ; preds = %47
  %65 = load i32, i32* %3, align 4
  store i32 %65, i32* %6, align 4
  %66 = load i32, i32* %4, align 4
  store i32 %66, i32* %7, align 4
  br label %71

67:                                               ; preds = %47
  br label %68

68:                                               ; preds = %67
  %69 = load i32, i32* %4, align 4
  %70 = add nsw i32 %69, 1
  store i32 %70, i32* %4, align 4
  br label %42

71:                                               ; preds = %64, %42
  br label %72

72:                                               ; preds = %71
  %73 = load i32, i32* %3, align 4
  %74 = add nsw i32 %73, 1
  store i32 %74, i32* %3, align 4
  br label %37

75:                                               ; preds = %37
  %76 = load i32, i32* %10, align 4
  %77 = sub nsw i32 %76, 1
  store i32 %77, i32* %3, align 4
  br label %78

78:                                               ; preds = %112, %75
  %79 = load i32, i32* %3, align 4
  %80 = icmp sge i32 %79, 0
  br i1 %80, label %81, label %115

81:                                               ; preds = %78
  %82 = load i32, i32* %10, align 4
  %83 = sub nsw i32 %82, 1
  store i32 %83, i32* %4, align 4
  br label %84

84:                                               ; preds = %108, %81
  %85 = load i32, i32* %4, align 4
  %86 = icmp sgt i32 %85, 0
  br i1 %86, label %87, label %111

87:                                               ; preds = %84
  %88 = load i32, i32* %3, align 4
  %89 = sext i32 %88 to i64
  %90 = getelementptr inbounds [1000 x [1000 x i32]], [1000 x [1000 x i32]]* %2, i64 0, i64 %89
  %91 = load i32, i32* %4, align 4
  %92 = sext i32 %91 to i64
  %93 = getelementptr inbounds [1000 x i32], [1000 x i32]* %90, i64 0, i64 %92
  %94 = load i32, i32* %93, align 4
  %95 = load i32, i32* %3, align 4
  %96 = sext i32 %95 to i64
  %97 = getelementptr inbounds [1000 x [1000 x i32]], [1000 x [1000 x i32]]* %2, i64 0, i64 %96
  %98 = load i32, i32* %4, align 4
  %99 = sub nsw i32 %98, 1
  %100 = sext i32 %99 to i64
  %101 = getelementptr inbounds [1000 x i32], [1000 x i32]* %97, i64 0, i64 %100
  %102 = load i32, i32* %101, align 4
  %103 = icmp slt i32 %94, %102
  br i1 %103, label %104, label %107

104:                                              ; preds = %87
  %105 = load i32, i32* %3, align 4
  store i32 %105, i32* %8, align 4
  %106 = load i32, i32* %4, align 4
  store i32 %106, i32* %9, align 4
  br label %111

107:                                              ; preds = %87
  br label %108

108:                                              ; preds = %107
  %109 = load i32, i32* %4, align 4
  %110 = add nsw i32 %109, -1
  store i32 %110, i32* %4, align 4
  br label %84

111:                                              ; preds = %104, %84
  br label %112

112:                                              ; preds = %111
  %113 = load i32, i32* %3, align 4
  %114 = add nsw i32 %113, -1
  store i32 %114, i32* %3, align 4
  br label %78

115:                                              ; preds = %78
  %116 = load i32, i32* %8, align 4
  %117 = load i32, i32* %6, align 4
  %118 = sub nsw i32 %116, %117
  %119 = add nsw i32 %118, 1
  %120 = load i32, i32* %9, align 4
  %121 = load i32, i32* %7, align 4
  %122 = sub nsw i32 %120, %121
  %123 = add nsw i32 %122, 1
  %124 = mul nsw i32 %119, %123
  store i32 %124, i32* %5, align 4
  %125 = load i32, i32* %5, align 4
  %126 = call i32 (i8*, ...) @printf(i8* getelementptr inbounds ([3 x i8], [3 x i8]* @.str, i64 0, i64 0), i32 %125)
  ret i32 0
}

declare dso_local i32 @__isoc99_scanf(i8*, ...) #1

declare dso_local i32 @printf(i8*, ...) #1


!llvm.module.flags = !{!0}
!llvm.ident = !{!1}

!0 = !{i32 1, !"wchar_size", i32 4}
!1 = !{!"clang version 10.0.0-4ubuntu1 "}
